target datalayout = "e-m:e-p270:32:32-p271:32:32-p272:64:64-i64:64-i128:128-f80:128-n8:16:32:64-S128"
target triple = "x86_64-pc-linux-gnu"

%struct.REExecContext = type { ptr, ptr, i32, i32, i32, i32, i32, i32, ptr, i64, ptr, i64, i64 }

; Function Attrs: nounwind uwtable
define dso_local i32 @lre_get_flags(ptr noundef %0) #0 {
  %2 = alloca ptr, align 8
  store ptr %0, ptr %2, align 8
  %3 = load ptr, ptr %2, align 8
  %4 = getelementptr i8, ptr %3, i64 0
  %5 = load i8, ptr %4, align 1
  %6 = zext i8 %5 to i32
  ret i32 %6
}

; Function Attrs: nounwind uwtable
define dso_local i32 @lre_exec(ptr noundef %0, ptr noundef %1, ptr noundef %2, i32 noundef %3, i32 noundef %4, i32 noundef %5, ptr noundef %6) #0 {
  %8 = alloca ptr, align 8
  %9 = alloca ptr, align 8
  %10 = alloca ptr, align 8
  %11 = alloca i32, align 4
  %12 = alloca i32, align 4
  %13 = alloca i32, align 4
  %14 = alloca ptr, align 8
  %15 = alloca %struct.REExecContext, align 8
  %16 = alloca ptr, align 8
  %17 = alloca i32, align 4
  %18 = alloca i32, align 4
  %19 = alloca i32, align 4
  %20 = alloca i32, align 4
  %21 = alloca ptr, align 8
  store ptr %0, ptr %8, align 8
  store ptr %1, ptr %9, align 8
  store ptr %2, ptr %10, align 8
  store i32 %3, ptr %11, align 4
  store i32 %4, ptr %12, align 4
  store i32 %5, ptr %13, align 4
  store ptr %6, ptr %14, align 8
  store ptr %15, ptr %16, align 8
  %22 = load ptr, ptr %9, align 8
  %23 = call i32 @lre_get_flags(ptr noundef %22)
  store i32 %23, ptr %17, align 4
  %24 = load i32, ptr %17, align 4
  %25 = and i32 %24, 4
  %26 = icmp ne i32 %25, 0
  %27 = zext i1 %26 to i32
  %28 = load ptr, ptr %16, align 8
  %29 = getelementptr inbounds %struct.REExecContext, ptr %28, i32 0, i32 5
  store i32 %27, ptr %29, align 4
  %30 = load i32, ptr %17, align 4
  %31 = and i32 %30, 2
  %32 = icmp ne i32 %31, 0
  %33 = zext i1 %32 to i32
  %34 = load ptr, ptr %16, align 8
  %35 = getelementptr inbounds %struct.REExecContext, ptr %34, i32 0, i32 6
  store i32 %33, ptr %35, align 8
  %36 = load i32, ptr %17, align 4
  %37 = and i32 %36, 16
  %38 = icmp ne i32 %37, 0
  %39 = zext i1 %38 to i32
  %40 = load ptr, ptr %16, align 8
  %41 = getelementptr inbounds %struct.REExecContext, ptr %40, i32 0, i32 7
  store i32 %39, ptr %41, align 4
  %42 = load ptr, ptr %9, align 8
  %43 = getelementptr i8, ptr %42, i64 1
  %44 = load i8, ptr %43, align 1
  %45 = zext i8 %44 to i32
  %46 = load ptr, ptr %16, align 8
  %47 = getelementptr inbounds %struct.REExecContext, ptr %46, i32 0, i32 3
  store i32 %45, ptr %47, align 4
  %48 = load ptr, ptr %9, align 8
  %49 = getelementptr i8, ptr %48, i64 2
  %50 = load i8, ptr %49, align 1
  %51 = zext i8 %50 to i32
  %52 = load ptr, ptr %16, align 8
  %53 = getelementptr inbounds %struct.REExecContext, ptr %52, i32 0, i32 4
  store i32 %51, ptr %53, align 8
  %54 = load ptr, ptr %10, align 8
  %55 = load ptr, ptr %16, align 8
  %56 = getelementptr inbounds %struct.REExecContext, ptr %55, i32 0, i32 0
  store ptr %54, ptr %56, align 8
  %57 = load ptr, ptr %10, align 8
  %58 = load i32, ptr %12, align 4
  %59 = load i32, ptr %13, align 4
  %60 = shl i32 %58, %59
  %61 = sext i32 %60 to i64
  %62 = getelementptr i8, ptr %57, i64 %61
  %63 = load ptr, ptr %16, align 8
  %64 = getelementptr inbounds %struct.REExecContext, ptr %63, i32 0, i32 1
  store ptr %62, ptr %64, align 8
  %65 = load i32, ptr %13, align 4
  %66 = load ptr, ptr %16, align 8
  %67 = getelementptr inbounds %struct.REExecContext, ptr %66, i32 0, i32 2
  store i32 %65, ptr %67, align 8
  %68 = load ptr, ptr %16, align 8
  %69 = getelementptr inbounds %struct.REExecContext, ptr %68, i32 0, i32 2
  %70 = load i32, ptr %69, align 8
  %71 = icmp eq i32 %70, 1
  br i1 %71, label %72, label %80

72:                                               ; preds = %7
  %73 = load ptr, ptr %16, align 8
  %74 = getelementptr inbounds %struct.REExecContext, ptr %73, i32 0, i32 7
  %75 = load i32, ptr %74, align 4
  %76 = icmp ne i32 %75, 0
  br i1 %76, label %77, label %80

77:                                               ; preds = %72
  %78 = load ptr, ptr %16, align 8
  %79 = getelementptr inbounds %struct.REExecContext, ptr %78, i32 0, i32 2
  store i32 2, ptr %79, align 8
  br label %80

80:                                               ; preds = %77, %72, %7
  %81 = load ptr, ptr %14, align 8
  %82 = load ptr, ptr %16, align 8
  %83 = getelementptr inbounds %struct.REExecContext, ptr %82, i32 0, i32 8
  store ptr %81, ptr %83, align 8
  %84 = load ptr, ptr %16, align 8
  %85 = getelementptr inbounds %struct.REExecContext, ptr %84, i32 0, i32 3
  %86 = load i32, ptr %85, align 4
  %87 = sext i32 %86 to i64
  %88 = mul i64 %87, 8
  %89 = mul i64 %88, 2
  %90 = add i64 32, %89
  %91 = load ptr, ptr %16, align 8
  %92 = getelementptr inbounds %struct.REExecContext, ptr %91, i32 0, i32 4
  %93 = load i32, ptr %92, align 8
  %94 = sext i32 %93 to i64
  %95 = mul i64 %94, 8
  %96 = add i64 %90, %95
  %97 = load ptr, ptr %16, align 8
  %98 = getelementptr inbounds %struct.REExecContext, ptr %97, i32 0, i32 9
  store i64 %96, ptr %98, align 8
  %99 = load ptr, ptr %16, align 8
  %100 = getelementptr inbounds %struct.REExecContext, ptr %99, i32 0, i32 10
  store ptr null, ptr %100, align 8
  %101 = load ptr, ptr %16, align 8
  %102 = getelementptr inbounds %struct.REExecContext, ptr %101, i32 0, i32 12
  store i64 0, ptr %102, align 8
  %103 = load ptr, ptr %16, align 8
  %104 = getelementptr inbounds %struct.REExecContext, ptr %103, i32 0, i32 11
  store i64 0, ptr %104, align 8
  store i32 0, ptr %18, align 4
  br label %105

105:                                              ; preds = %117, %80
  %106 = load i32, ptr %18, align 4
  %107 = load ptr, ptr %16, align 8
  %108 = getelementptr inbounds %struct.REExecContext, ptr %107, i32 0, i32 3
  %109 = load i32, ptr %108, align 4
  %110 = mul i32 %109, 2
  %111 = icmp slt i32 %106, %110
  br i1 %111, label %112, label %120

112:                                              ; preds = %105
  %113 = load ptr, ptr %8, align 8
  %114 = load i32, ptr %18, align 4
  %115 = sext i32 %114 to i64
  %116 = getelementptr ptr, ptr %113, i64 %115
  store ptr null, ptr %116, align 8
  br label %117

117:                                              ; preds = %112
  %118 = load i32, ptr %18, align 4
  %119 = add i32 %118, 1
  store i32 %119, ptr %18, align 4
  br label %105, !llvm.loop !13

120:                                              ; preds = %105
  %121 = load ptr, ptr %16, align 8
  %122 = getelementptr inbounds %struct.REExecContext, ptr %121, i32 0, i32 4
  %123 = load i32, ptr %122, align 8
  %124 = sext i32 %123 to i64
  %125 = mul i64 %124, 8
  %126 = trunc i64 %125 to i32
  store i32 %126, ptr %19, align 4
  %127 = load i32, ptr %19, align 4
  %128 = sext i32 %127 to i64
  %129 = alloca i8, i64 %128, align 16
  store ptr %129, ptr %21, align 8
  %130 = load ptr, ptr %16, align 8
  %131 = load ptr, ptr %8, align 8
  %132 = load ptr, ptr %21, align 8
  %133 = load ptr, ptr %9, align 8
  %134 = getelementptr i8, ptr %133, i64 7
  %135 = load ptr, ptr %10, align 8
  %136 = load i32, ptr %11, align 4
  %137 = load i32, ptr %13, align 4
  %138 = shl i32 %136, %137
  %139 = sext i32 %138 to i64
  %140 = getelementptr i8, ptr %135, i64 %139
  %141 = call i64 @lre_exec_backtrack(ptr noundef %130, ptr noundef %131, ptr noundef %132, i32 noundef 0, ptr noundef %134, ptr noundef %140, i32 noundef 0)
  %142 = trunc i64 %141 to i32
  store i32 %142, ptr %20, align 4
  %143 = load ptr, ptr %16, align 8
  %144 = getelementptr inbounds %struct.REExecContext, ptr %143, i32 0, i32 8
  %145 = load ptr, ptr %144, align 8
  %146 = load ptr, ptr %16, align 8
  %147 = getelementptr inbounds %struct.REExecContext, ptr %146, i32 0, i32 10
  %148 = load ptr, ptr %147, align 8
  %149 = call ptr @lre_realloc(ptr noundef %145, ptr noundef %148, i64 noundef 0)
  %150 = load i32, ptr %20, align 4
  ret i32 %150
}