; Function Attrs: nounwind uwtable
define dso_local i32 @lre_exec(ptr nocapture noundef %0, ptr noundef %1, ptr noundef %2, i32 noundef %3, i32 noundef %4, i32 noundef %5, ptr noundef %6) local_unnamed_addr #2 {
  %8 = alloca %struct.REExecContext, align 8
  %9 = load i8, ptr %1, align 1
  %10 = zext i8 %9 to i32
  %11 = lshr i32 %10, 2
  %.lobit = and i32 %11, 1
  %12 = getelementptr inbounds i8, ptr %8, i64 28
  store i32 %.lobit, ptr %12, align 4
  %13 = lshr i32 %10, 1
  %.lobit46 = and i32 %13, 1
  %14 = getelementptr inbounds i8, ptr %8, i64 32
  store i32 %.lobit46, ptr %14, align 8
  %15 = lshr i32 %10, 4
  %.lobit47 = and i32 %15, 1
  %16 = getelementptr inbounds i8, ptr %8, i64 36
  store i32 %.lobit47, ptr %16, align 4
  %17 = getelementptr i8, ptr %1, i64 1
  %18 = load i8, ptr %17, align 1
  %19 = zext i8 %18 to i32
  %20 = getelementptr inbounds i8, ptr %8, i64 20
  store i32 %19, ptr %20, align 4
  %21 = getelementptr i8, ptr %1, i64 2
  %22 = load i8, ptr %21, align 1
  %23 = zext i8 %22 to i32
  %24 = getelementptr inbounds i8, ptr %8, i64 24
  store i32 %23, ptr %24, align 8
  store ptr %2, ptr %8, align 8
  %25 = shl i32 %4, %5
  %26 = sext i32 %25 to i64
  %27 = getelementptr i8, ptr %2, i64 %26
  %28 = getelementptr inbounds i8, ptr %8, i64 8
  store ptr %27, ptr %28, align 8
  %29 = getelementptr inbounds i8, ptr %8, i64 16
  %30 = icmp ne i32 %5, 1
  %.not = icmp eq i32 %.lobit47, 0
  %or.cond = select i1 %30, i1 true, i1 %.not
  %spec.store.select = select i1 %or.cond, i32 %5, i32 2
  store i32 %spec.store.select, ptr %29, align 8
  %31 = getelementptr inbounds i8, ptr %8, i64 40
  store ptr %6, ptr %31, align 8
  %32 = zext i8 %18 to i64
  %33 = shl nuw nsw i64 %32, 4
  %34 = add nuw nsw i64 %33, 32
  %35 = zext i8 %22 to i64
  %36 = shl nuw nsw i64 %35, 3
  %37 = add nuw nsw i64 %34, %36
  %38 = getelementptr inbounds i8, ptr %8, i64 48
  store i64 %37, ptr %38, align 8
  %39 = getelementptr inbounds i8, ptr %8, i64 56
  %.not49 = icmp eq i8 %18, 0
  call void @llvm.memset.p0.i64(ptr noundef nonnull align 8 dereferenceable(24) %39, i8 0, i64 24, i1 false)
  br i1 %.not49, label %._crit_edge, label %.lr.ph.preheader

.lr.ph.preheader:                                 ; preds = %7
  %40 = shl nuw nsw i32 %19, 1
  %41 = add nsw i32 %40, -2
  %42 = zext i32 %41 to i64
  %43 = shl nuw nsw i64 %42, 3
  %44 = add nuw nsw i64 %43, 16
  tail call void @llvm.memset.p0.i64(ptr noundef nonnull align 8 dereferenceable(1) %0, i8 0, i64 %44, i1 false)
  br label %._crit_edge

._crit_edge:                                      ; preds = %.lr.ph.preheader, %7
  %45 = shl nuw nsw i32 %23, 3
  %46 = zext nneg i32 %45 to i64
  %47 = alloca i8, i64 %46, align 16
  %48 = getelementptr i8, ptr %1, i64 7
  %49 = shl i32 %3, %5
  %50 = sext i32 %49 to i64
  %51 = getelementptr i8, ptr %2, i64 %50
  %52 = call fastcc i64 @lre_exec_backtrack(ptr noundef nonnull %8, ptr noundef %0, ptr noundef nonnull %47, i32 noundef 0, ptr noundef %48, ptr noundef %51, i32 noundef 0)
  %53 = trunc i64 %52 to i32
  %54 = load ptr, ptr %31, align 8
  %55 = load ptr, ptr %39, align 8
  %56 = call ptr @lre_realloc(ptr noundef %54, ptr noundef %55, i64 noundef 0) #17
  ret i32 %53
}